target datalayout = "e-m:e-p270:32:32-p271:32:32-p272:64:64-i64:64-i128:128-f80:128-n8:16:32:64-S128"
target triple = "x86_64-pc-linux-gnu"

%"class.std::basic_istream" = type { ptr, i64, %"class.std::basic_ios" }
%"class.std::basic_ios" = type { %"class.std::ios_base", ptr, i8, i8, ptr, ptr, ptr, ptr }
%"class.std::ios_base" = type { ptr, i64, i64, i32, i32, i32, ptr, %"struct.std::ios_base::_Words", [8 x %"struct.std::ios_base::_Words"], i32, ptr, %"class.std::locale" }
%"struct.std::ios_base::_Words" = type { ptr, i64 }
%"class.std::locale" = type { ptr }
%"class.std::basic_ostream" = type { ptr, %"class.std::basic_ios" }
%class.V3LexerBase = type <{ %class.FlexLexer.base, i32, i32, [4 x i8], ptr, %"class.std::basic_istream", %"class.std::basic_ostream", i8, [3 x i8], i32, ptr, i32, i32, i32, [4 x i8], i64, i64, ptr, i32, [4 x i8], ptr, ptr, ptr, ptr, ptr, i32, i32, i32, i32, i32, i32, i32, [4 x i8] }>
%class.FlexLexer.base = type <{ ptr, ptr, i32, i32, i32 }>

; Function Attrs: mustprogress nounwind uwtable
define dso_local noundef i32 @_ZN11V3LexerBase16yy_try_NUL_transEi(ptr noundef nonnull align 8 dereferenceable(732) %0, i32 noundef %1) #4 align 2 {
  %3 = alloca ptr, align 8
  %4 = alloca i32, align 4
  %5 = alloca i32, align 4
  %6 = alloca ptr, align 8
  %7 = alloca i8, align 1
  store ptr %0, ptr %3, align 8
  store i32 %1, ptr %4, align 4
  %8 = load ptr, ptr %3, align 8
  %9 = getelementptr inbounds %class.V3LexerBase, ptr %8, i32 0, i32 10
  %10 = load ptr, ptr %9, align 8
  store ptr %10, ptr %6, align 8
  store i8 1, ptr %7, align 1
  %11 = load i32, ptr %4, align 4
  %12 = sext i32 %11 to i64
  %13 = getelementptr inbounds [4670 x i16], ptr @_ZL9yy_accept, i64 0, i64 %12
  %14 = load i16, ptr %13, align 2
  %15 = icmp ne i16 %14, 0
  br i1 %15, label %16, label %21

16:                                               ; preds = %2
  %17 = load i32, ptr %4, align 4
  %18 = getelementptr inbounds %class.V3LexerBase, ptr %8, i32 0, i32 18
  store i32 %17, ptr %18, align 8
  %19 = load ptr, ptr %6, align 8
  %20 = getelementptr inbounds %class.V3LexerBase, ptr %8, i32 0, i32 20
  store ptr %19, ptr %20, align 8
  br label %21

21:                                               ; preds = %16, %2
  br label %22

22:                                               ; preds = %50, %21
  %23 = load i32, ptr %4, align 4
  %24 = sext i32 %23 to i64
  %25 = getelementptr inbounds [4800 x i16], ptr @_ZL7yy_base, i64 0, i64 %24
  %26 = load i16, ptr %25, align 2
  %27 = sext i16 %26 to i32
  %28 = load i8, ptr %7, align 1
  %29 = zext i8 %28 to i32
  %30 = add nsw i32 %27, %29
  %31 = sext i32 %30 to i64
  %32 = getelementptr inbounds [8949 x i16], ptr @_ZL6yy_chk, i64 0, i64 %31
  %33 = load i16, ptr %32, align 2
  %34 = sext i16 %33 to i32
  %35 = load i32, ptr %4, align 4
  %36 = icmp ne i32 %34, %35
  br i1 %36, label %37, label %51

37:                                               ; preds = %22
  %38 = load i32, ptr %4, align 4
  %39 = sext i32 %38 to i64
  %40 = getelementptr inbounds [4800 x i16], ptr @_ZL6yy_def, i64 0, i64 %39
  %41 = load i16, ptr %40, align 2
  %42 = sext i16 %41 to i32
  store i32 %42, ptr %4, align 4
  %43 = load i32, ptr %4, align 4
  %44 = icmp sge i32 %43, 4670
  br i1 %44, label %45, label %50

45:                                               ; preds = %37
  %46 = load i8, ptr %7, align 1
  %47 = zext i8 %46 to i64
  %48 = getelementptr inbounds [85 x i8], ptr @_ZL7yy_meta, i64 0, i64 %47
  %49 = load i8, ptr %48, align 1
  store i8 %49, ptr %7, align 1
  br label %50

50:                                               ; preds = %45, %37
  br label %22, !llvm.loop !12

51:                                               ; preds = %22
  %52 = load i32, ptr %4, align 4
  %53 = sext i32 %52 to i64
  %54 = getelementptr inbounds [4800 x i16], ptr @_ZL7yy_base, i64 0, i64 %53
  %55 = load i16, ptr %54, align 2
  %56 = sext i16 %55 to i32
  %57 = load i8, ptr %7, align 1
  %58 = zext i8 %57 to i32
  %59 = add nsw i32 %56, %58
  %60 = sext i32 %59 to i64
  %61 = getelementptr inbounds [8949 x i16], ptr @_ZL6yy_nxt, i64 0, i64 %60
  %62 = load i16, ptr %61, align 2
  %63 = sext i16 %62 to i32
  store i32 %63, ptr %4, align 4
  %64 = load i32, ptr %4, align 4
  %65 = icmp eq i32 %64, 4669
  %66 = zext i1 %65 to i32
  store i32 %66, ptr %5, align 4
  %67 = load i32, ptr %5, align 4
  %68 = icmp ne i32 %67, 0
  br i1 %68, label %69, label %70

69:                                               ; preds = %51
  br label %72

70:                                               ; preds = %51
  %71 = load i32, ptr %4, align 4
  br label %72

72:                                               ; preds = %70, %69
  %73 = phi i32 [ 0, %69 ], [ %71, %70 ]
  ret i32 %73
}